target datalayout = "e-m:e-p270:32:32-p271:32:32-p272:64:64-i64:64-i128:128-f80:128-n8:16:32:64-S128"
target triple = "x86_64-pc-linux-gnu"

%"struct.Luau::CodeGen::BuiltinImplResult" = type { i32, i32 }
%"struct.Luau::CodeGen::IrOp" = type { i32 }

; Function Attrs: mustprogress uwtable
define internal i32 @_ZN4Luau7CodeGenL17builtinLoadDoubleERNS0_9IrBuilderENS0_4IrOpE(ptr noundef nonnull align 8 dereferenceable(752) %0, i32 %1) #2 {
  %3 = alloca %"struct.Luau::CodeGen::IrOp", align 4
  %4 = alloca %"struct.Luau::CodeGen::IrOp", align 4
  %5 = alloca ptr, align 8
  %6 = alloca %"struct.Luau::CodeGen::IrOp", align 4
  %7 = getelementptr inbounds nuw %"struct.Luau::CodeGen::IrOp", ptr %4, i32 0, i32 0
  store i32 %1, ptr %7, align 4
  store ptr %0, ptr %5, align 8, !tbaa !20
  %8 = load i32, ptr %4, align 4
  %9 = and i32 %8, 15
  %10 = icmp eq i32 %9, 2
  br i1 %10, label %11, label %12

11:                                               ; preds = %2
  call void @llvm.memcpy.p0.p0.i64(ptr align 4 %3, ptr align 4 %4, i64 4, i1 false), !tbaa.struct !28
  br label %18

12:                                               ; preds = %2
  %13 = load ptr, ptr %5, align 8, !tbaa !20
  call void @llvm.memcpy.p0.p0.i64(ptr align 4 %6, ptr align 4 %4, i64 4, i1 false), !tbaa.struct !28
  %14 = getelementptr inbounds nuw %"struct.Luau::CodeGen::IrOp", ptr %6, i32 0, i32 0
  %15 = load i32, ptr %14, align 4
  %16 = call i32 @_ZN4Luau7CodeGen9IrBuilder4instENS0_5IrCmdENS0_4IrOpE(ptr noundef nonnull align 8 dereferenceable(752) %13, i8 noundef zeroext 3, i32 %15)
  %17 = getelementptr inbounds nuw %"struct.Luau::CodeGen::IrOp", ptr %3, i32 0, i32 0
  store i32 %16, ptr %17, align 4
  br label %18

18:                                               ; preds = %12, %11
  %19 = getelementptr inbounds nuw %"struct.Luau::CodeGen::IrOp", ptr %3, i32 0, i32 0
  %20 = load i32, ptr %19, align 4
  ret i32 %20
}

; Function Attrs: mustprogress uwtable
define internal void @_ZN4Luau7CodeGenL18builtinCheckDoubleERNS0_9IrBuilderENS0_4IrOpEi(ptr noundef nonnull align 8 dereferenceable(752) %0, i32 %1, i32 noundef %2) #2 {
  %4 = alloca %"struct.Luau::CodeGen::IrOp", align 4
  %5 = alloca ptr, align 8
  %6 = alloca i32, align 4
  %7 = alloca %"struct.Luau::CodeGen::IrOp", align 4
  %8 = alloca %"struct.Luau::CodeGen::IrOp", align 4
  %9 = getelementptr inbounds nuw %"struct.Luau::CodeGen::IrOp", ptr %4, i32 0, i32 0
  store i32 %1, ptr %9, align 4
  store ptr %0, ptr %5, align 8, !tbaa !20
  store i32 %2, ptr %6, align 4, !tbaa !22
  %10 = load i32, ptr %4, align 4
  %11 = and i32 %10, 15
  %12 = icmp eq i32 %11, 2
  br i1 %12, label %13, label %14

13:                                               ; preds = %3
  br label %24

14:                                               ; preds = %3
  %15 = load ptr, ptr %5, align 8, !tbaa !20
  call void @llvm.memcpy.p0.p0.i64(ptr align 4 %7, ptr align 4 %4, i64 4, i1 false), !tbaa.struct !28
  %16 = load ptr, ptr %5, align 8, !tbaa !20
  %17 = load i32, ptr %6, align 4, !tbaa !22
  %18 = call i32 @_ZN4Luau7CodeGen9IrBuilder6vmExitEj(ptr noundef nonnull align 8 dereferenceable(752) %16, i32 noundef %17)
  %19 = getelementptr inbounds nuw %"struct.Luau::CodeGen::IrOp", ptr %8, i32 0, i32 0
  store i32 %18, ptr %19, align 4
  %20 = getelementptr inbounds nuw %"struct.Luau::CodeGen::IrOp", ptr %7, i32 0, i32 0
  %21 = load i32, ptr %20, align 4
  %22 = getelementptr inbounds nuw %"struct.Luau::CodeGen::IrOp", ptr %8, i32 0, i32 0
  %23 = load i32, ptr %22, align 4
  call void @_ZN4Luau7CodeGen9IrBuilder15loadAndCheckTagENS0_4IrOpEhS2_(ptr noundef nonnull align 8 dereferenceable(752) %15, i32 %21, i8 noundef zeroext 3, i32 %23)
  br label %24

24:                                               ; preds = %14, %13
  ret void
}

; Function Attrs: mustprogress uwtable
define internal i64 @_ZN4Luau7CodeGenL24translateBuiltinMathLerpERNS0_9IrBuilderEiiiNS0_4IrOpES3_iS3_i(ptr noundef nonnull align 8 dereferenceable(752) %0, i32 noundef %1, i32 noundef %2, i32 noundef %3, i32 %4, i32 %5, i32 noundef %6, i32 %7, i32 noundef %8) #2 {
  %10 = alloca %"struct.Luau::CodeGen::BuiltinImplResult", align 4
  %11 = alloca %"struct.Luau::CodeGen::IrOp", align 4
  %12 = alloca %"struct.Luau::CodeGen::IrOp", align 4
  %13 = alloca %"struct.Luau::CodeGen::IrOp", align 4
  %14 = alloca ptr, align 8
  %15 = alloca i32, align 4
  %16 = alloca i32, align 4
  %17 = alloca i32, align 4
  %18 = alloca i32, align 4
  %19 = alloca i32, align 4
  %20 = alloca %"struct.Luau::CodeGen::IrOp", align 4
  %21 = alloca %"struct.Luau::CodeGen::IrOp", align 4
  %22 = alloca %"struct.Luau::CodeGen::IrOp", align 4
  %23 = alloca %"struct.Luau::CodeGen::IrOp", align 4
  %24 = alloca %"struct.Luau::CodeGen::IrOp", align 4
  %25 = alloca %"struct.Luau::CodeGen::IrOp", align 4
  %26 = alloca %"struct.Luau::CodeGen::IrOp", align 4
  %27 = alloca %"struct.Luau::CodeGen::IrOp", align 4
  %28 = alloca %"struct.Luau::CodeGen::IrOp", align 4
  %29 = alloca %"struct.Luau::CodeGen::IrOp", align 4
  %30 = alloca %"struct.Luau::CodeGen::IrOp", align 4
  %31 = alloca %"struct.Luau::CodeGen::IrOp", align 4
  %32 = alloca %"struct.Luau::CodeGen::IrOp", align 4
  %33 = alloca %"struct.Luau::CodeGen::IrOp", align 4
  %34 = alloca %"struct.Luau::CodeGen::IrOp", align 4
  %35 = alloca %"struct.Luau::CodeGen::IrOp", align 4
  %36 = alloca %"struct.Luau::CodeGen::IrOp", align 4
  %37 = alloca %"struct.Luau::CodeGen::IrOp", align 4
  %38 = alloca %"struct.Luau::CodeGen::IrOp", align 4
  %39 = alloca %"struct.Luau::CodeGen::IrOp", align 4
  %40 = alloca %"struct.Luau::CodeGen::IrOp", align 4
  %41 = alloca %"struct.Luau::CodeGen::IrOp", align 4
  %42 = alloca %"struct.Luau::CodeGen::IrOp", align 4
  %43 = alloca %"struct.Luau::CodeGen::IrOp", align 4
  %44 = alloca %"struct.Luau::CodeGen::IrOp", align 4
  %45 = alloca %"struct.Luau::CodeGen::IrOp", align 4
  %46 = alloca %"struct.Luau::CodeGen::IrOp", align 4
  %47 = getelementptr inbounds nuw %"struct.Luau::CodeGen::IrOp", ptr %11, i32 0, i32 0
  store i32 %4, ptr %47, align 4
  %48 = getelementptr inbounds nuw %"struct.Luau::CodeGen::IrOp", ptr %12, i32 0, i32 0
  store i32 %5, ptr %48, align 4
  %49 = getelementptr inbounds nuw %"struct.Luau::CodeGen::IrOp", ptr %13, i32 0, i32 0
  store i32 %7, ptr %49, align 4
  store ptr %0, ptr %14, align 8, !tbaa !20
  store i32 %1, ptr %15, align 4, !tbaa !22
  store i32 %2, ptr %16, align 4, !tbaa !22
  store i32 %3, ptr %17, align 4, !tbaa !22
  store i32 %6, ptr %18, align 4, !tbaa !22
  store i32 %8, ptr %19, align 4, !tbaa !22
  %50 = load i32, ptr %15, align 4, !tbaa !22
  %51 = icmp slt i32 %50, 3
  br i1 %51, label %55, label %52

52:                                               ; preds = %9
  %53 = load i32, ptr %18, align 4, !tbaa !22
  %54 = icmp sgt i32 %53, 1
  br i1 %54, label %55, label %58

55:                                               ; preds = %52, %9
  %56 = getelementptr inbounds nuw %"struct.Luau::CodeGen::BuiltinImplResult", ptr %10, i32 0, i32 0
  store i32 0, ptr %56, align 4, !tbaa !24
  %57 = getelementptr inbounds nuw %"struct.Luau::CodeGen::BuiltinImplResult", ptr %10, i32 0, i32 1
  store i32 -1, ptr %57, align 4, !tbaa !27
  br label %165

58:                                               ; preds = %52
  %59 = load ptr, ptr %14, align 8, !tbaa !20
  %60 = load ptr, ptr %14, align 8, !tbaa !20
  %61 = load i32, ptr %17, align 4, !tbaa !22
  %62 = trunc i32 %61 to i8
  %63 = call i32 @_ZN4Luau7CodeGen9IrBuilder5vmRegEh(ptr noundef nonnull align 8 dereferenceable(752) %60, i8 noundef zeroext %62)
  %64 = getelementptr inbounds nuw %"struct.Luau::CodeGen::IrOp", ptr %20, i32 0, i32 0
  store i32 %63, ptr %64, align 4
  %65 = load i32, ptr %19, align 4, !tbaa !22
  %66 = getelementptr inbounds nuw %"struct.Luau::CodeGen::IrOp", ptr %20, i32 0, i32 0
  %67 = load i32, ptr %66, align 4
  call void @_ZN4Luau7CodeGenL18builtinCheckDoubleERNS0_9IrBuilderENS0_4IrOpEi(ptr noundef nonnull align 8 dereferenceable(752) %59, i32 %67, i32 noundef %65)
  %68 = load ptr, ptr %14, align 8, !tbaa !20
  call void @llvm.memcpy.p0.p0.i64(ptr align 4 %21, ptr align 4 %11, i64 4, i1 false), !tbaa.struct !28
  %69 = load i32, ptr %19, align 4, !tbaa !22
  %70 = getelementptr inbounds nuw %"struct.Luau::CodeGen::IrOp", ptr %21, i32 0, i32 0
  %71 = load i32, ptr %70, align 4
  call void @_ZN4Luau7CodeGenL18builtinCheckDoubleERNS0_9IrBuilderENS0_4IrOpEi(ptr noundef nonnull align 8 dereferenceable(752) %68, i32 %71, i32 noundef %69)
  %72 = load ptr, ptr %14, align 8, !tbaa !20
  call void @llvm.memcpy.p0.p0.i64(ptr align 4 %22, ptr align 4 %12, i64 4, i1 false), !tbaa.struct !28
  %73 = load i32, ptr %19, align 4, !tbaa !22
  %74 = getelementptr inbounds nuw %"struct.Luau::CodeGen::IrOp", ptr %22, i32 0, i32 0
  %75 = load i32, ptr %74, align 4
  call void @_ZN4Luau7CodeGenL18builtinCheckDoubleERNS0_9IrBuilderENS0_4IrOpEi(ptr noundef nonnull align 8 dereferenceable(752) %72, i32 %75, i32 noundef %73)
  call void @llvm.lifetime.start.p0(i64 4, ptr %23) #11
  %76 = load ptr, ptr %14, align 8, !tbaa !20
  %77 = load ptr, ptr %14, align 8, !tbaa !20
  %78 = load i32, ptr %17, align 4, !tbaa !22
  %79 = trunc i32 %78 to i8
  %80 = call i32 @_ZN4Luau7CodeGen9IrBuilder5vmRegEh(ptr noundef nonnull align 8 dereferenceable(752) %77, i8 noundef zeroext %79)
  %81 = getelementptr inbounds nuw %"struct.Luau::CodeGen::IrOp", ptr %24, i32 0, i32 0
  store i32 %80, ptr %81, align 4
  %82 = getelementptr inbounds nuw %"struct.Luau::CodeGen::IrOp", ptr %24, i32 0, i32 0
  %83 = load i32, ptr %82, align 4
  %84 = call i32 @_ZN4Luau7CodeGenL17builtinLoadDoubleERNS0_9IrBuilderENS0_4IrOpE(ptr noundef nonnull align 8 dereferenceable(752) %76, i32 %83)
  %85 = getelementptr inbounds nuw %"struct.Luau::CodeGen::IrOp", ptr %23, i32 0, i32 0
  store i32 %84, ptr %85, align 4
  call void @llvm.lifetime.start.p0(i64 4, ptr %25) #11
  %86 = load ptr, ptr %14, align 8, !tbaa !20
  call void @llvm.memcpy.p0.p0.i64(ptr align 4 %26, ptr align 4 %11, i64 4, i1 false), !tbaa.struct !28
  %87 = getelementptr inbounds nuw %"struct.Luau::CodeGen::IrOp", ptr %26, i32 0, i32 0
  %88 = load i32, ptr %87, align 4
  %89 = call i32 @_ZN4Luau7CodeGenL17builtinLoadDoubleERNS0_9IrBuilderENS0_4IrOpE(ptr noundef nonnull align 8 dereferenceable(752) %86, i32 %88)
  %90 = getelementptr inbounds nuw %"struct.Luau::CodeGen::IrOp", ptr %25, i32 0, i32 0
  store i32 %89, ptr %90, align 4
  call void @llvm.lifetime.start.p0(i64 4, ptr %27) #11
  %91 = load ptr, ptr %14, align 8, !tbaa !20
  call void @llvm.memcpy.p0.p0.i64(ptr align 4 %28, ptr align 4 %12, i64 4, i1 false), !tbaa.struct !28
  %92 = getelementptr inbounds nuw %"struct.Luau::CodeGen::IrOp", ptr %28, i32 0, i32 0
  %93 = load i32, ptr %92, align 4
  %94 = call i32 @_ZN4Luau7CodeGenL17builtinLoadDoubleERNS0_9IrBuilderENS0_4IrOpE(ptr noundef nonnull align 8 dereferenceable(752) %91, i32 %93)
  %95 = getelementptr inbounds nuw %"struct.Luau::CodeGen::IrOp", ptr %27, i32 0, i32 0
  store i32 %94, ptr %95, align 4
  call void @llvm.lifetime.start.p0(i64 4, ptr %29) #11
  %96 = load ptr, ptr %14, align 8, !tbaa !20
  call void @llvm.memcpy.p0.p0.i64(ptr align 4 %30, ptr align 4 %23, i64 4, i1 false), !tbaa.struct !28
  %97 = load ptr, ptr %14, align 8, !tbaa !20
  %98 = load ptr, ptr %14, align 8, !tbaa !20
  call void @llvm.memcpy.p0.p0.i64(ptr align 4 %33, ptr align 4 %25, i64 4, i1 false), !tbaa.struct !28
  call void @llvm.memcpy.p0.p0.i64(ptr align 4 %34, ptr align 4 %23, i64 4, i1 false), !tbaa.struct !28
  %99 = getelementptr inbounds nuw %"struct.Luau::CodeGen::IrOp", ptr %33, i32 0, i32 0
  %100 = load i32, ptr %99, align 4
  %101 = getelementptr inbounds nuw %"struct.Luau::CodeGen::IrOp", ptr %34, i32 0, i32 0
  %102 = load i32, ptr %101, align 4
  %103 = call i32 @_ZN4Luau7CodeGen9IrBuilder4instENS0_5IrCmdENS0_4IrOpES3_(ptr noundef nonnull align 8 dereferenceable(752) %98, i8 noundef zeroext 23, i32 %100, i32 %102)
  %104 = getelementptr inbounds nuw %"struct.Luau::CodeGen::IrOp", ptr %32, i32 0, i32 0
  store i32 %103, ptr %104, align 4
  call void @llvm.memcpy.p0.p0.i64(ptr align 4 %35, ptr align 4 %27, i64 4, i1 false), !tbaa.struct !28
  %105 = getelementptr inbounds nuw %"struct.Luau::CodeGen::IrOp", ptr %32, i32 0, i32 0
  %106 = load i32, ptr %105, align 4
  %107 = getelementptr inbounds nuw %"struct.Luau::CodeGen::IrOp", ptr %35, i32 0, i32 0
  %108 = load i32, ptr %107, align 4
  %109 = call i32 @_ZN4Luau7CodeGen9IrBuilder4instENS0_5IrCmdENS0_4IrOpES3_(ptr noundef nonnull align 8 dereferenceable(752) %97, i8 noundef zeroext 24, i32 %106, i32 %108)
  %110 = getelementptr inbounds nuw %"struct.Luau::CodeGen::IrOp", ptr %31, i32 0, i32 0
  store i32 %109, ptr %110, align 4
  %111 = getelementptr inbounds nuw %"struct.Luau::CodeGen::IrOp", ptr %30, i32 0, i32 0
  %112 = load i32, ptr %111, align 4
  %113 = getelementptr inbounds nuw %"struct.Luau::CodeGen::IrOp", ptr %31, i32 0, i32 0
  %114 = load i32, ptr %113, align 4
  %115 = call i32 @_ZN4Luau7CodeGen9IrBuilder4instENS0_5IrCmdENS0_4IrOpES3_(ptr noundef nonnull align 8 dereferenceable(752) %96, i8 noundef zeroext 22, i32 %112, i32 %114)
  %116 = getelementptr inbounds nuw %"struct.Luau::CodeGen::IrOp", ptr %29, i32 0, i32 0
  store i32 %115, ptr %116, align 4
  call void @llvm.lifetime.start.p0(i64 4, ptr %36) #11
  %117 = load ptr, ptr %14, align 8, !tbaa !20
  call void @llvm.memcpy.p0.p0.i64(ptr align 4 %37, ptr align 4 %29, i64 4, i1 false), !tbaa.struct !28
  call void @llvm.memcpy.p0.p0.i64(ptr align 4 %38, ptr align 4 %25, i64 4, i1 false), !tbaa.struct !28
  call void @llvm.memcpy.p0.p0.i64(ptr align 4 %39, ptr align 4 %27, i64 4, i1 false), !tbaa.struct !28
  %118 = load ptr, ptr %14, align 8, !tbaa !20
  %119 = call i32 @_ZN4Luau7CodeGen9IrBuilder11constDoubleEd(ptr noundef nonnull align 8 dereferenceable(752) %118, double noundef 1.000000e+00)
  %120 = getelementptr inbounds nuw %"struct.Luau::CodeGen::IrOp", ptr %40, i32 0, i32 0
  store i32 %119, ptr %120, align 4
  %121 = getelementptr inbounds nuw %"struct.Luau::CodeGen::IrOp", ptr %37, i32 0, i32 0
  %122 = load i32, ptr %121, align 4
  %123 = getelementptr inbounds nuw %"struct.Luau::CodeGen::IrOp", ptr %38, i32 0, i32 0
  %124 = load i32, ptr %123, align 4
  %125 = getelementptr inbounds nuw %"struct.Luau::CodeGen::IrOp", ptr %39, i32 0, i32 0
  %126 = load i32, ptr %125, align 4
  %127 = getelementptr inbounds nuw %"struct.Luau::CodeGen::IrOp", ptr %40, i32 0, i32 0
  %128 = load i32, ptr %127, align 4
  %129 = call i32 @_ZN4Luau7CodeGen9IrBuilder4instENS0_5IrCmdENS0_4IrOpES3_S3_S3_(ptr noundef nonnull align 8 dereferenceable(752) %117, i8 noundef zeroext 37, i32 %122, i32 %124, i32 %126, i32 %128)
  %130 = getelementptr inbounds nuw %"struct.Luau::CodeGen::IrOp", ptr %36, i32 0, i32 0
  store i32 %129, ptr %130, align 4
  %131 = load ptr, ptr %14, align 8, !tbaa !20
  %132 = load ptr, ptr %14, align 8, !tbaa !20
  %133 = load i32, ptr %16, align 4, !tbaa !22
  %134 = trunc i32 %133 to i8
  %135 = call i32 @_ZN4Luau7CodeGen9IrBuilder5vmRegEh(ptr noundef nonnull align 8 dereferenceable(752) %132, i8 noundef zeroext %134)
  %136 = getelementptr inbounds nuw %"struct.Luau::CodeGen::IrOp", ptr %41, i32 0, i32 0
  store i32 %135, ptr %136, align 4
  call void @llvm.memcpy.p0.p0.i64(ptr align 4 %42, ptr align 4 %36, i64 4, i1 false), !tbaa.struct !28
  %137 = getelementptr inbounds nuw %"struct.Luau::CodeGen::IrOp", ptr %41, i32 0, i32 0
  %138 = load i32, ptr %137, align 4
  %139 = getelementptr inbounds nuw %"struct.Luau::CodeGen::IrOp", ptr %42, i32 0, i32 0
  %140 = load i32, ptr %139, align 4
  %141 = call i32 @_ZN4Luau7CodeGen9IrBuilder4instENS0_5IrCmdENS0_4IrOpES3_(ptr noundef nonnull align 8 dereferenceable(752) %131, i8 noundef zeroext 15, i32 %138, i32 %140)
  %142 = getelementptr inbounds nuw %"struct.Luau::CodeGen::IrOp", ptr %43, i32 0, i32 0
  store i32 %141, ptr %142, align 4
  %143 = load i32, ptr %16, align 4, !tbaa !22
  %144 = load i32, ptr %17, align 4, !tbaa !22
  %145 = icmp ne i32 %143, %144
  br i1 %145, label %146, label %162

146:                                              ; preds = %58
  %147 = load ptr, ptr %14, align 8, !tbaa !20
  %148 = load ptr, ptr %14, align 8, !tbaa !20
  %149 = load i32, ptr %16, align 4, !tbaa !22
  %150 = trunc i32 %149 to i8
  %151 = call i32 @_ZN4Luau7CodeGen9IrBuilder5vmRegEh(ptr noundef nonnull align 8 dereferenceable(752) %148, i8 noundef zeroext %150)
  %152 = getelementptr inbounds nuw %"struct.Luau::CodeGen::IrOp", ptr %44, i32 0, i32 0
  store i32 %151, ptr %152, align 4
  %153 = load ptr, ptr %14, align 8, !tbaa !20
  %154 = call i32 @_ZN4Luau7CodeGen9IrBuilder8constTagEh(ptr noundef nonnull align 8 dereferenceable(752) %153, i8 noundef zeroext 3)
  %155 = getelementptr inbounds nuw %"struct.Luau::CodeGen::IrOp", ptr %45, i32 0, i32 0
  store i32 %154, ptr %155, align 4
  %156 = getelementptr inbounds nuw %"struct.Luau::CodeGen::IrOp", ptr %44, i32 0, i32 0
  %157 = load i32, ptr %156, align 4
  %158 = getelementptr inbounds nuw %"struct.Luau::CodeGen::IrOp", ptr %45, i32 0, i32 0
  %159 = load i32, ptr %158, align 4
  %160 = call i32 @_ZN4Luau7CodeGen9IrBuilder4instENS0_5IrCmdENS0_4IrOpES3_(ptr noundef nonnull align 8 dereferenceable(752) %147, i8 noundef zeroext 12, i32 %157, i32 %159)
  %161 = getelementptr inbounds nuw %"struct.Luau::CodeGen::IrOp", ptr %46, i32 0, i32 0
  store i32 %160, ptr %161, align 4
  br label %162

162:                                              ; preds = %146, %58
  %163 = getelementptr inbounds nuw %"struct.Luau::CodeGen::BuiltinImplResult", ptr %10, i32 0, i32 0
  store i32 2, ptr %163, align 4, !tbaa !24
  %164 = getelementptr inbounds nuw %"struct.Luau::CodeGen::BuiltinImplResult", ptr %10, i32 0, i32 1
  store i32 1, ptr %164, align 4, !tbaa !27
  call void @llvm.lifetime.end.p0(i64 4, ptr %36) #11
  call void @llvm.lifetime.end.p0(i64 4, ptr %29) #11
  call void @llvm.lifetime.end.p0(i64 4, ptr %27) #11
  call void @llvm.lifetime.end.p0(i64 4, ptr %25) #11
  call void @llvm.lifetime.end.p0(i64 4, ptr %23) #11
  br label %165

165:                                              ; preds = %162, %55
  %166 = load i64, ptr %10, align 4
  ret i64 %166
}